target datalayout = "e-m:e-p270:32:32-p271:32:32-p272:64:64-i64:64-i128:128-f80:128-n8:16:32:64-S128"
target triple = "x86_64-pc-linux-gnu"

%struct.SDL_WindowData = type { ptr, ptr, ptr, ptr, ptr, ptr, ptr, %union.anon, i32, i32, i32, i32, ptr, ptr, ptr, ptr, ptr, ptr, ptr, ptr, ptr, ptr, ptr, ptr, ptr, ptr, %struct.SDL_AtomicInt, ptr, i32, ptr, double, ptr, i32, i32, i32, i32, %struct.anon.3, %struct.anon.4, %struct.anon.5, %struct.anon.6, %struct.anon.7, %struct.anon.8, %struct.anon.9, i32, i32, i32, i64, i32, i32, i8, i8, i8, i8, i8, i8, i8, i8, i8, i8, i8, i8, i8, i8, i32, %struct.wl_list }
%union.anon = type { %struct.anon }
%struct.anon = type { ptr, %union.anon.0, i8 }
%union.anon.0 = type { %struct.anon.2 }
%struct.anon.2 = type { ptr, ptr }
%struct.SDL_AtomicInt = type { i32 }
%struct.anon.3 = type { double, double }
%struct.anon.4 = type { i32, i32, i32, i32 }
%struct.anon.5 = type { i32, i32, i32, i32 }
%struct.anon.6 = type { i32, i32 }
%struct.anon.7 = type { i32, i32 }
%struct.anon.8 = type { i32, i32 }
%struct.anon.9 = type { i32, i32, i8 }
%struct.wl_list = type { ptr, ptr }
%struct.SDL_DisplayMode = type { i32, i32, i32, i32, float, float, i32, i32, ptr }
%struct.SDL_HDROutputProperties = type { float, float }
%struct.SDL_DisplayData = type { ptr, ptr, ptr, ptr, ptr, double, i32, i32, i32, i32, i32, i32, i32, i32, i32, i32, i32, i32, i8, i8, i8, %struct.SDL_HDROutputProperties, i32, %struct.SDL_VideoDisplay, i32, ptr }
%struct.SDL_VideoDisplay = type { i32, ptr, i32, i32, ptr, %struct.SDL_DisplayMode, ptr, i32, i32, float, %struct.SDL_HDROutputProperties, i8, ptr, ptr, i32, ptr }

@WAYLAND_wl_proxy_get_version = external global ptr, align 8

; Function Attrs: inlinehint nounwind uwtable
define internal i32 @wl_surface_get_version(ptr noundef %0) #4 {
  %2 = alloca ptr, align 8
  store ptr %0, ptr %2, align 8
  %3 = load ptr, ptr @WAYLAND_wl_proxy_get_version, align 8
  %4 = load ptr, ptr %2, align 8
  %5 = call i32 %3(ptr noundef %4)
  ret i32 %5
}

; Function Attrs: nounwind uwtable
define internal void @Wayland_MaybeUpdateScaleFactor(ptr noundef %0) #0 {
  %2 = alloca ptr, align 8
  %3 = alloca double, align 8
  %4 = alloca i32, align 4
  %5 = alloca i32, align 4
  %6 = alloca ptr, align 8
  store ptr %0, ptr %2, align 8
  call void @llvm.lifetime.start.p0(i64 8, ptr %3) #10
  call void @llvm.lifetime.start.p0(i64 4, ptr %4) #10
  %7 = load ptr, ptr %2, align 8
  %8 = getelementptr inbounds nuw %struct.SDL_WindowData, ptr %7, i32 0, i32 18
  %9 = load ptr, ptr %8, align 8
  %10 = icmp ne ptr %9, null
  br i1 %10, label %17, label %11

11:                                               ; preds = %1
  %12 = load ptr, ptr %2, align 8
  %13 = getelementptr inbounds nuw %struct.SDL_WindowData, ptr %12, i32 0, i32 2
  %14 = load ptr, ptr %13, align 8
  %15 = call i32 @wl_surface_get_version(ptr noundef %14)
  %16 = icmp uge i32 %15, 6
  br i1 %16, label %17, label %18

17:                                               ; preds = %11, %1
  store i32 1, ptr %5, align 4
  br label %62

18:                                               ; preds = %11
  %19 = load ptr, ptr %2, align 8
  %20 = getelementptr inbounds nuw %struct.SDL_WindowData, ptr %19, i32 0, i32 28
  %21 = load i32, ptr %20, align 8
  %22 = icmp ne i32 %21, 0
  br i1 %22, label %23, label %55

23:                                               ; preds = %18
  store double 0.000000e+00, ptr %3, align 8
  store i32 0, ptr %4, align 4
  br label %24

24:                                               ; preds = %51, %23
  %25 = load i32, ptr %4, align 4
  %26 = load ptr, ptr %2, align 8
  %27 = getelementptr inbounds nuw %struct.SDL_WindowData, ptr %26, i32 0, i32 28
  %28 = load i32, ptr %27, align 8
  %29 = icmp slt i32 %25, %28
  br i1 %29, label %30, label %54

30:                                               ; preds = %24
  call void @llvm.lifetime.start.p0(i64 8, ptr %6) #10
  %31 = load ptr, ptr %2, align 8
  %32 = getelementptr inbounds nuw %struct.SDL_WindowData, ptr %31, i32 0, i32 27
  %33 = load ptr, ptr %32, align 8
  %34 = load i32, ptr %4, align 4
  %35 = sext i32 %34 to i64
  %36 = getelementptr inbounds ptr, ptr %33, i64 %35
  %37 = load ptr, ptr %36, align 8
  store ptr %37, ptr %6, align 8
  %38 = load double, ptr %3, align 8
  %39 = load ptr, ptr %6, align 8
  %40 = getelementptr inbounds nuw %struct.SDL_DisplayData, ptr %39, i32 0, i32 5
  %41 = load double, ptr %40, align 8
  %42 = fcmp ogt double %38, %41
  br i1 %42, label %43, label %45

43:                                               ; preds = %30
  %44 = load double, ptr %3, align 8
  br label %49

45:                                               ; preds = %30
  %46 = load ptr, ptr %6, align 8
  %47 = getelementptr inbounds nuw %struct.SDL_DisplayData, ptr %46, i32 0, i32 5
  %48 = load double, ptr %47, align 8
  br label %49

49:                                               ; preds = %45, %43
  %50 = phi double [ %44, %43 ], [ %48, %45 ]
  store double %50, ptr %3, align 8
  call void @llvm.lifetime.end.p0(i64 8, ptr %6) #10
  br label %51

51:                                               ; preds = %49
  %52 = load i32, ptr %4, align 4
  %53 = add nsw i32 %52, 1
  store i32 %53, ptr %4, align 4
  br label %24, !llvm.loop !8

54:                                               ; preds = %24
  br label %59

55:                                               ; preds = %18
  %56 = load ptr, ptr %2, align 8
  %57 = getelementptr inbounds nuw %struct.SDL_WindowData, ptr %56, i32 0, i32 30
  %58 = load double, ptr %57, align 8
  store double %58, ptr %3, align 8
  br label %59

59:                                               ; preds = %55, %54
  %60 = load ptr, ptr %2, align 8
  %61 = load double, ptr %3, align 8
  call void @Wayland_HandlePreferredScaleChanged(ptr noundef %60, double noundef %61)
  store i32 0, ptr %5, align 4
  br label %62

62:                                               ; preds = %59, %17
  call void @llvm.lifetime.end.p0(i64 4, ptr %4) #10
  call void @llvm.lifetime.end.p0(i64 8, ptr %3) #10
  %63 = load i32, ptr %5, align 4
  switch i32 %63, label %65 [
    i32 0, label %64
    i32 1, label %64
  ]

64:                                               ; preds = %62, %62
  ret void

65:                                               ; preds = %62
  unreachable
}

; Function Attrs: nounwind uwtable
define hidden void @Wayland_RemoveOutputFromWindow(ptr noundef %0, ptr noundef %1) #0 {
  %3 = alloca ptr, align 8
  %4 = alloca ptr, align 8
  %5 = alloca i32, align 4
  store ptr %0, ptr %3, align 8
  store ptr %1, ptr %4, align 8
  call void @llvm.lifetime.start.p0(i64 4, ptr %5) #10
  store i32 0, ptr %5, align 4
  br label %6

6:                                                ; preds = %67, %2
  %7 = load i32, ptr %5, align 4
  %8 = load ptr, ptr %3, align 8
  %9 = getelementptr inbounds nuw %struct.SDL_WindowData, ptr %8, i32 0, i32 28
  %10 = load i32, ptr %9, align 8
  %11 = icmp slt i32 %7, %10
  br i1 %11, label %13, label %12

12:                                               ; preds = %6
  call void @llvm.lifetime.end.p0(i64 4, ptr %5) #10
  br label %70

13:                                               ; preds = %6
  %14 = load ptr, ptr %3, align 8
  %15 = getelementptr inbounds nuw %struct.SDL_WindowData, ptr %14, i32 0, i32 27
  %16 = load ptr, ptr %15, align 8
  %17 = load i32, ptr %5, align 4
  %18 = sext i32 %17 to i64
  %19 = getelementptr inbounds ptr, ptr %16, i64 %18
  %20 = load ptr, ptr %19, align 8
  %21 = load ptr, ptr %4, align 8
  %22 = icmp eq ptr %20, %21
  br i1 %22, label %23, label %66

23:                                               ; preds = %13
  %24 = load i32, ptr %5, align 4
  %25 = load ptr, ptr %3, align 8
  %26 = getelementptr inbounds nuw %struct.SDL_WindowData, ptr %25, i32 0, i32 28
  %27 = load i32, ptr %26, align 8
  %28 = sub nsw i32 %27, 1
  %29 = icmp eq i32 %24, %28
  br i1 %29, label %30, label %37

30:                                               ; preds = %23
  %31 = load ptr, ptr %3, align 8
  %32 = getelementptr inbounds nuw %struct.SDL_WindowData, ptr %31, i32 0, i32 27
  %33 = load ptr, ptr %32, align 8
  %34 = load i32, ptr %5, align 4
  %35 = sext i32 %34 to i64
  %36 = getelementptr inbounds ptr, ptr %33, i64 %35
  store ptr null, ptr %36, align 8
  br label %59

37:                                               ; preds = %23
  %38 = load ptr, ptr %3, align 8
  %39 = getelementptr inbounds nuw %struct.SDL_WindowData, ptr %38, i32 0, i32 27
  %40 = load ptr, ptr %39, align 8
  %41 = load i32, ptr %5, align 4
  %42 = sext i32 %41 to i64
  %43 = getelementptr inbounds ptr, ptr %40, i64 %42
  %44 = load ptr, ptr %3, align 8
  %45 = getelementptr inbounds nuw %struct.SDL_WindowData, ptr %44, i32 0, i32 27
  %46 = load ptr, ptr %45, align 8
  %47 = load i32, ptr %5, align 4
  %48 = add nsw i32 %47, 1
  %49 = sext i32 %48 to i64
  %50 = getelementptr inbounds ptr, ptr %46, i64 %49
  %51 = load ptr, ptr %3, align 8
  %52 = getelementptr inbounds nuw %struct.SDL_WindowData, ptr %51, i32 0, i32 28
  %53 = load i32, ptr %52, align 8
  %54 = load i32, ptr %5, align 4
  %55 = sub nsw i32 %53, %54
  %56 = sub nsw i32 %55, 1
  %57 = sext i32 %56 to i64
  %58 = mul i64 8, %57
  call void @llvm.memmove.p0.p0.i64(ptr align 8 %43, ptr align 8 %50, i64 %58, i1 false)
  br label %59

59:                                               ; preds = %37, %30
  %60 = load ptr, ptr %3, align 8
  %61 = getelementptr inbounds nuw %struct.SDL_WindowData, ptr %60, i32 0, i32 28
  %62 = load i32, ptr %61, align 8
  %63 = add nsw i32 %62, -1
  store i32 %63, ptr %61, align 8
  %64 = load i32, ptr %5, align 4
  %65 = add nsw i32 %64, -1
  store i32 %65, ptr %5, align 4
  br label %66

66:                                               ; preds = %59, %13
  br label %67

67:                                               ; preds = %66
  %68 = load i32, ptr %5, align 4
  %69 = add nsw i32 %68, 1
  store i32 %69, ptr %5, align 4
  br label %6, !llvm.loop !3

70:                                               ; preds = %12
  %71 = load ptr, ptr %3, align 8
  %72 = getelementptr inbounds nuw %struct.SDL_WindowData, ptr %71, i32 0, i32 28
  %73 = load i32, ptr %72, align 8
  %74 = icmp eq i32 %73, 0
  br i1 %74, label %75, label %81

75:                                               ; preds = %70
  %76 = load ptr, ptr %3, align 8
  %77 = getelementptr inbounds nuw %struct.SDL_WindowData, ptr %76, i32 0, i32 27
  %78 = load ptr, ptr %77, align 8
  call void @SDL_free_REAL(ptr noundef %78)
  %79 = load ptr, ptr %3, align 8
  %80 = getelementptr inbounds nuw %struct.SDL_WindowData, ptr %79, i32 0, i32 27
  store ptr null, ptr %80, align 8
  br label %97

81:                                               ; preds = %70
  %82 = load ptr, ptr %3, align 8
  %83 = getelementptr inbounds nuw %struct.SDL_WindowData, ptr %82, i32 0, i32 54
  %84 = load i8, ptr %83, align 1, !range !5, !noundef !6
  %85 = trunc i8 %84 to i1
  br i1 %85, label %86, label %91

86:                                               ; preds = %81
  %87 = load ptr, ptr %3, align 8
  %88 = getelementptr inbounds nuw %struct.SDL_WindowData, ptr %87, i32 0, i32 28
  %89 = load i32, ptr %88, align 8
  %90 = icmp eq i32 %89, 1
  br i1 %90, label %91, label %96

91:                                               ; preds = %86, %81
  %92 = load ptr, ptr %3, align 8
  %93 = getelementptr inbounds nuw %struct.SDL_WindowData, ptr %92, i32 0, i32 0
  %94 = load ptr, ptr %93, align 8
  call void @Wayland_move_window(ptr noundef %94)
  %95 = load ptr, ptr %3, align 8
  call void @Wayland_MaybeUpdateScaleFactor(ptr noundef %95)
  br label %96

96:                                               ; preds = %91, %86
  br label %97

97:                                               ; preds = %96, %75
  ret void
}