; Function Attrs: nounwind uwtable
define hidden void @Wayland_RemoveOutputFromWindow(ptr noundef captures(none) %0, ptr noundef readnone captures(address) %1) local_unnamed_addr #0 {
  %3 = getelementptr inbounds nuw i8, ptr %0, i64 232
  %4 = load i32, ptr %3, align 8
  %5 = icmp sgt i32 %4, 0
  br i1 %5, label %.lr.ph, label %._crit_edge

.lr.ph:                                           ; preds = %2
  %6 = getelementptr inbounds nuw i8, ptr %0, i64 224
  br label %8

._crit_edge:                                      ; preds = %29, %2
  %.lcssa = phi i32 [ %4, %2 ], [ %30, %29 ]
  %7 = icmp eq i32 %.lcssa, 0
  br i1 %7, label %33, label %36

8:                                                ; preds = %.lr.ph, %29
  %9 = phi i32 [ %4, %.lr.ph ], [ %30, %29 ]
  %.028 = phi i32 [ 0, %.lr.ph ], [ %31, %29 ]
  %10 = load ptr, ptr %6, align 8
  %11 = sext i32 %.028 to i64
  %12 = getelementptr inbounds ptr, ptr %10, i64 %11
  %13 = load ptr, ptr %12, align 8
  %14 = icmp eq ptr %13, %1
  br i1 %14, label %15, label %29

15:                                               ; preds = %8
  %16 = add nsw i32 %9, -1
  %17 = icmp eq i32 %.028, %16
  br i1 %17, label %18, label %19

18:                                               ; preds = %15
  store ptr null, ptr %12, align 8
  br label %25

19:                                               ; preds = %15
  %20 = getelementptr i8, ptr %12, i64 8
  %21 = xor i32 %.028, -1
  %22 = add i32 %9, %21
  %23 = sext i32 %22 to i64
  %24 = shl nsw i64 %23, 3
  tail call void @llvm.memmove.p0.p0.i64(ptr nonnull align 8 %12, ptr align 8 %20, i64 %24, i1 false)
  br label %25

25:                                               ; preds = %19, %18
  %26 = load i32, ptr %3, align 8
  %27 = add nsw i32 %26, -1
  store i32 %27, ptr %3, align 8
  %28 = add nsw i32 %.028, -1
  br label %29

29:                                               ; preds = %8, %25
  %30 = phi i32 [ %27, %25 ], [ %9, %8 ]
  %.1 = phi i32 [ %28, %25 ], [ %.028, %8 ]
  %31 = add nsw i32 %.1, 1
  %32 = icmp slt i32 %31, %30
  br i1 %32, label %8, label %._crit_edge, !llvm.loop !3

33:                                               ; preds = %._crit_edge
  %34 = getelementptr inbounds nuw i8, ptr %0, i64 224
  %35 = load ptr, ptr %34, align 8
  tail call void @SDL_free_REAL(ptr noundef %35) #15
  store ptr null, ptr %34, align 8
  br label %Wayland_MaybeUpdateScaleFactor.exit

36:                                               ; preds = %._crit_edge
  %37 = getelementptr inbounds nuw i8, ptr %0, i64 397
  %38 = load i8, ptr %37, align 1, !range !5, !noundef !6
  %39 = trunc nuw i8 %38 to i1
  %40 = icmp ne i32 %.lcssa, 1
  %or.cond.not = and i1 %40, %39
  br i1 %or.cond.not, label %Wayland_MaybeUpdateScaleFactor.exit, label %41

41:                                               ; preds = %36
  %42 = load ptr, ptr %0, align 8
  tail call fastcc void @Wayland_move_window(ptr noundef %42)
  %43 = getelementptr inbounds nuw i8, ptr %0, i64 152
  %44 = load ptr, ptr %43, align 8
  %.not.i = icmp eq ptr %44, null
  br i1 %.not.i, label %45, label %Wayland_MaybeUpdateScaleFactor.exit

45:                                               ; preds = %41
  %46 = getelementptr inbounds nuw i8, ptr %0, i64 16
  %47 = load ptr, ptr %46, align 8
  %48 = load ptr, ptr @WAYLAND_wl_proxy_get_version, align 8
  %49 = tail call i32 %48(ptr noundef %47) #15
  %50 = icmp ugt i32 %49, 5
  br i1 %50, label %Wayland_MaybeUpdateScaleFactor.exit, label %51

51:                                               ; preds = %45
  %52 = load i32, ptr %3, align 8
  %.not16.i = icmp eq i32 %52, 0
  br i1 %.not16.i, label %62, label %.preheader.i

.preheader.i:                                     ; preds = %51
  %53 = icmp sgt i32 %52, 0
  br i1 %53, label %.lr.ph.i, label %.loopexit.i

.lr.ph.i:                                         ; preds = %.preheader.i
  %54 = getelementptr inbounds nuw i8, ptr %0, i64 224
  %55 = load ptr, ptr %54, align 8
  %wide.trip.count.i = zext nneg i32 %52 to i64
  br label %56

56:                                               ; preds = %56, %.lr.ph.i
  %indvars.iv.i = phi i64 [ 0, %.lr.ph.i ], [ %indvars.iv.next.i, %56 ]
  %.018.i = phi double [ 0.000000e+00, %.lr.ph.i ], [ %.0..i, %56 ]
  %57 = getelementptr inbounds nuw ptr, ptr %55, i64 %indvars.iv.i
  %58 = load ptr, ptr %57, align 8
  %59 = getelementptr inbounds nuw i8, ptr %58, i64 40
  %60 = load double, ptr %59, align 8
  %61 = fcmp ogt double %.018.i, %60
  %.0..i = select i1 %61, double %.018.i, double %60
  %indvars.iv.next.i = add nuw nsw i64 %indvars.iv.i, 1
  %exitcond.not.i = icmp eq i64 %indvars.iv.next.i, %wide.trip.count.i
  br i1 %exitcond.not.i, label %.loopexit.i, label %56, !llvm.loop !7

62:                                               ; preds = %51
  %63 = getelementptr inbounds nuw i8, ptr %0, i64 248
  %64 = load double, ptr %63, align 8
  br label %.loopexit.i

.loopexit.i:                                      ; preds = %56, %62, %.preheader.i
  %.1.i = phi double [ %64, %62 ], [ 0.000000e+00, %.preheader.i ], [ %.0..i, %56 ]
  tail call fastcc void @Wayland_HandlePreferredScaleChanged(ptr noundef nonnull %0, double noundef %.1.i)
  br label %Wayland_MaybeUpdateScaleFactor.exit

Wayland_MaybeUpdateScaleFactor.exit:              ; preds = %.loopexit.i, %45, %41, %36, %33
  ret void
}